target datalayout = "e-m:e-p270:32:32-p271:32:32-p272:64:64-i64:64-i128:128-f80:128-n8:16:32:64-S128"
target triple = "x86_64-pc-linux-gnu"

%"class.YAML::RegEx" = type { i32, i8, i8, %"class.std::vector" }
%"class.std::vector" = type { %"struct.std::_Vector_base" }
%"struct.std::_Vector_base" = type { %"struct.std::_Vector_base<YAML::RegEx, std::allocator<YAML::RegEx>>::_Vector_impl" }
%"struct.std::_Vector_base<YAML::RegEx, std::allocator<YAML::RegEx>>::_Vector_impl" = type { %"struct.std::_Vector_base<YAML::RegEx, std::allocator<YAML::RegEx>>::_Vector_impl_data" }
%"struct.std::_Vector_base<YAML::RegEx, std::allocator<YAML::RegEx>>::_Vector_impl_data" = type { ptr, ptr, ptr }

; Function Attrs: mustprogress nounwind uwtable
define linkonce_odr void @_ZNSt15__new_allocatorIN4YAML5RegExEEC2Ev(ptr noundef nonnull align 1 dereferenceable(1) %0) unnamed_addr #0 comdat align 2 {
  %2 = alloca ptr, align 8
  store ptr %0, ptr %2, align 8, !tbaa !28
  ret void
}

; Function Attrs: mustprogress nounwind uwtable
define linkonce_odr void @_ZNSt12_Vector_baseIN4YAML5RegExESaIS1_EE17_Vector_impl_dataC2Ev(ptr noundef nonnull align 8 dereferenceable(24) %0) unnamed_addr #0 comdat align 2 {
  %2 = alloca ptr, align 8
  store ptr %0, ptr %2, align 8, !tbaa !36
  %3 = load ptr, ptr %2, align 8
  %4 = getelementptr inbounds nuw %"struct.std::_Vector_base<YAML::RegEx, std::allocator<YAML::RegEx>>::_Vector_impl_data", ptr %3, i32 0, i32 0
  store ptr null, ptr %4, align 8, !tbaa !38
  %5 = getelementptr inbounds nuw %"struct.std::_Vector_base<YAML::RegEx, std::allocator<YAML::RegEx>>::_Vector_impl_data", ptr %3, i32 0, i32 1
  store ptr null, ptr %5, align 8, !tbaa !30
  %6 = getelementptr inbounds nuw %"struct.std::_Vector_base<YAML::RegEx, std::allocator<YAML::RegEx>>::_Vector_impl_data", ptr %3, i32 0, i32 2
  store ptr null, ptr %6, align 8, !tbaa !31
  ret void
}

; Function Attrs: mustprogress nounwind uwtable
define linkonce_odr void @_ZNSaIN4YAML5RegExEEC2Ev(ptr noundef nonnull align 1 dereferenceable(1) %0) unnamed_addr #0 comdat align 2 {
  %2 = alloca ptr, align 8
  store ptr %0, ptr %2, align 8, !tbaa !25
  %3 = load ptr, ptr %2, align 8
  call void @_ZNSt15__new_allocatorIN4YAML5RegExEEC2Ev(ptr noundef nonnull align 1 dereferenceable(1) %3) #12
  ret void
}

; Function Attrs: mustprogress nounwind uwtable
define linkonce_odr void @_ZNSt12_Vector_baseIN4YAML5RegExESaIS1_EE12_Vector_implC2Ev(ptr noundef nonnull align 8 dereferenceable(24) %0) unnamed_addr #0 comdat align 2 {
  %2 = alloca ptr, align 8
  store ptr %0, ptr %2, align 8, !tbaa !34
  %3 = load ptr, ptr %2, align 8
  call void @_ZNSaIN4YAML5RegExEEC2Ev(ptr noundef nonnull align 1 dereferenceable(1) %3) #12
  call void @_ZNSt12_Vector_baseIN4YAML5RegExESaIS1_EE17_Vector_impl_dataC2Ev(ptr noundef nonnull align 8 dereferenceable(24) %3) #12
  ret void
}

; Function Attrs: mustprogress nounwind uwtable
define linkonce_odr void @_ZNSt12_Vector_baseIN4YAML5RegExESaIS1_EEC2Ev(ptr noundef nonnull align 8 dereferenceable(24) %0) unnamed_addr #0 comdat align 2 {
  %2 = alloca ptr, align 8
  store ptr %0, ptr %2, align 8, !tbaa !32
  %3 = load ptr, ptr %2, align 8
  %4 = getelementptr inbounds nuw %"struct.std::_Vector_base", ptr %3, i32 0, i32 0
  call void @_ZNSt12_Vector_baseIN4YAML5RegExESaIS1_EE12_Vector_implC2Ev(ptr noundef nonnull align 8 dereferenceable(24) %4) #12
  ret void
}

; Function Attrs: mustprogress nounwind uwtable
define linkonce_odr void @_ZNSt6vectorIN4YAML5RegExESaIS1_EEC2Ev(ptr noundef nonnull align 8 dereferenceable(24) %0) unnamed_addr #0 comdat align 2 {
  %2 = alloca ptr, align 8
  store ptr %0, ptr %2, align 8, !tbaa !18
  %3 = load ptr, ptr %2, align 8
  call void @_ZNSt12_Vector_baseIN4YAML5RegExESaIS1_EEC2Ev(ptr noundef nonnull align 8 dereferenceable(24) %3) #12
  ret void
}

; Function Attrs: mustprogress nounwind uwtable
define void @_ZN4YAML5RegExC2Ec(ptr noundef nonnull align 8 dereferenceable(32) %0, i8 noundef signext %1) unnamed_addr #0 align 2 {
  %3 = alloca ptr, align 8
  %4 = alloca i8, align 1
  store ptr %0, ptr %3, align 8, !tbaa !3
  store i8 %1, ptr %4, align 1, !tbaa !20
  %5 = load ptr, ptr %3, align 8
  %6 = getelementptr inbounds nuw %"class.YAML::RegEx", ptr %5, i32 0, i32 0
  store i32 1, ptr %6, align 8, !tbaa !10
  %7 = getelementptr inbounds nuw %"class.YAML::RegEx", ptr %5, i32 0, i32 1
  %8 = load i8, ptr %4, align 1, !tbaa !20
  store i8 %8, ptr %7, align 4, !tbaa !16
  %9 = getelementptr inbounds nuw %"class.YAML::RegEx", ptr %5, i32 0, i32 2
  store i8 0, ptr %9, align 1, !tbaa !17
  %10 = getelementptr inbounds nuw %"class.YAML::RegEx", ptr %5, i32 0, i32 3
  call void @llvm.memset.p0.i64(ptr align 8 %10, i8 0, i64 24, i1 false)
  call void @_ZNSt6vectorIN4YAML5RegExESaIS1_EEC2Ev(ptr noundef nonnull align 8 dereferenceable(24) %10) #12
  ret void
}